; Function Attrs: mustprogress uwtable
define noundef nonnull align 8 dereferenceable(64) ptr @_ZNK6icu_7716ICULocaleService22validateFallbackLocaleEv(ptr noundef nonnull align 8 dereferenceable(408) %0) local_unnamed_addr #1 align 2 personality ptr @__gxx_personality_v0 {
  %2 = tail call noundef nonnull align 8 dereferenceable(217) ptr @_ZN6icu_776Locale10getDefaultEv()
  tail call void @umtx_lock_77(ptr noundef nonnull @_ZZNK6icu_7716ICULocaleService22validateFallbackLocaleEvE5llock)
  %3 = getelementptr inbounds nuw i8, ptr %0, i64 120
  %4 = invoke noundef zeroext i1 @_ZNK6icu_776LocaleeqERKS0_(ptr noundef nonnull align 8 dereferenceable(217) %2, ptr noundef nonnull align 8 dereferenceable(217) %3)
          to label %5 unwind label %12

5:                                                ; preds = %1
  br i1 %4, label %17, label %6

6:                                                ; preds = %5
  %7 = invoke noundef nonnull align 8 dereferenceable(217) ptr @_ZN6icu_776LocaleaSERKS0_(ptr noundef nonnull align 8 dereferenceable(217) %3, ptr noundef nonnull align 8 dereferenceable(217) %2)
          to label %8 unwind label %12

8:                                                ; preds = %6
  %9 = getelementptr inbounds nuw i8, ptr %0, i64 344
  %10 = invoke noundef nonnull align 8 dereferenceable(64) ptr @_ZN6icu_7713LocaleUtility18initNameFromLocaleERKNS_6LocaleERNS_13UnicodeStringE(ptr noundef nonnull align 8 dereferenceable(217) %2, ptr noundef nonnull align 8 dereferenceable(64) %9)
          to label %11 unwind label %12

11:                                               ; preds = %8
  invoke void @_ZN6icu_7710ICUService17clearServiceCacheEv(ptr noundef nonnull align 8 dereferenceable(120) %0)
          to label %17 unwind label %12

12:                                               ; preds = %1, %11, %8, %6
  %13 = landingpad { ptr, i32 }
          cleanup
  invoke void @umtx_unlock_77(ptr noundef nonnull @_ZZNK6icu_7716ICULocaleService22validateFallbackLocaleEvE5llock)
          to label %_ZN6icu_775MutexD2Ev.exit unwind label %14

14:                                               ; preds = %12
  %15 = landingpad { ptr, i32 }
          catch ptr null
  %16 = extractvalue { ptr, i32 } %15, 0
  tail call void @__clang_call_terminate(ptr %16) #17
  unreachable

_ZN6icu_775MutexD2Ev.exit:                        ; preds = %12
  resume { ptr, i32 } %13

17:                                               ; preds = %11, %5
  invoke void @umtx_unlock_77(ptr noundef nonnull @_ZZNK6icu_7716ICULocaleService22validateFallbackLocaleEvE5llock)
          to label %_ZN6icu_775MutexD2Ev.exit8 unwind label %18

18:                                               ; preds = %17
  %19 = landingpad { ptr, i32 }
          catch ptr null
  %20 = extractvalue { ptr, i32 } %19, 0
  tail call void @__clang_call_terminate(ptr %20) #17
  unreachable

_ZN6icu_775MutexD2Ev.exit8:                       ; preds = %17
  %21 = getelementptr inbounds nuw i8, ptr %0, i64 344
  ret ptr %21
}